
AVRASM ver. 1.74  pozytyw.asm Tue Jan 21 15:57:31 2014


         ; ******************************************************
         ; BASIC .ASM template file for AVR
         ; ******************************************************
         
          .include "C:\PROGRA~2\VMLAB\include\m16def.inc"
         ;***************************************************************************
         ;* A P P L I C A T I O N   N O T E   F O R   T H E   A V R   F A M I L Y
         ;* 
         ;* Number				:AVR000
         ;* File Name			:"m16def.inc"
         ;* Title				:Register/Bit Definitions for the ATmega16
         ;* Date                 :07.09.2001
         ;* Version              :1.00
         ;* Support telephone	:+47 72 88 87 20 (ATMEL Norway)
         ;* Support fax			:+47 72 88 87 18 (ATMEL Norway)
         ;* Support E-mail		:avr@atmel.no
         ;* Target MCU			:ATmega16
         ;*
         ;* DESCRIPTION
         ;* When including this file in the assembly program file, all I/O register	
         ;* names and I/O register bit names appearing in the data book can be used.
         ;* In addition, the six registers forming the three data pointers X, Y and
         ;* Z have been assigned names XL - ZH. Highest RAM address for Internal 
         ;* SRAM is also defined 
         ;*
         ;* The Register names are represented by their hexadecimal address.
         ;* 
         ;* The Register Bit names are represented by their bit number (0-7).
         ;* 
         ;* Please observe the difference in using the bit names with instructions
         ;* such as "sbr"/"cbr" (set/clear bit in register) and "sbrs"/"sbrc" 
         ;* (skip if bit in register set/cleared). The following example illustrates
         ;* this:
         ;* 
         ;* in	r16,PORTB				;read PORTB latch
         ;* sbr	r16,(1<<PB6)+(1<<PB5)	;set PB6 and PB5 (use masks, not bit#)
         ;* out  PORTB,r16				;output to PORTB
         ;*
         ;* in	r16,TIFR				;read the Timer Interrupt Flag Register
         ;* sbrc	r16,TOV0				;test the overflow flag (use bit#)
         ;* rjmp	TOV0_is_set				;jump if set
         ;* ...							;otherwise do something else
         ;***************************************************************************
         
         ;***** Specify Device
          .device ATmega16
         
         ;***** I/O Register Definitions
          .equ	SREG	=$3f
          .equ	SPH		=$3e
          .equ	SPL		=$3d
          .equ	OCR0	=$3c		
          .equ	GICR	=$3b		; New name for GIMSK
          .equ	GIMSK	=$3b
          .equ	GIFR	=$3a
          .equ	TIMSK	=$39
          .equ	TIFR	=$38
          .equ	SPMCR	=$37
          .equ    I2CR    =$36
          .equ    TWCR    =$36
          .equ    MCUCR   =$35
          .equ    MCUSR   =$34
          .equ    MCUCSR	=$34		; New name for MCUSR
          .equ	TCCR0	=$33
          .equ	TCNT0	=$32
          .equ    OSCCAL  =$31
          .equ    SFIOR   =$30
          .equ	TCCR1A	=$2f
          .equ	TCCR1B	=$2e
          .equ	TCNT1H	=$2d
          .equ	TCNT1L	=$2c
          .equ	OCR1AH	=$2b
          .equ	OCR1AL	=$2a
          .equ	OCR1BH	=$29
          .equ	OCR1BL	=$28
          .equ	ICR1H	=$27
          .equ	ICR1L	=$26
          .equ	TCCR2	=$25
          .equ	TCNT2	=$24
          .equ	OCR2	=$23
          .equ	ASSR	=$22
          .equ	WDTCR	=$21
          .equ    UBRRHI  =$20
          .equ    UBRRH   =$20		; New name for UBRRHI
          .equ	EEARH	=$1f
          .equ	EEARL	=$1e
          .equ	EEDR	=$1d
          .equ	EECR	=$1c
          .equ	PORTA	=$1b
          .equ	DDRA	=$1a
          .equ	PINA	=$19
          .equ	PORTB	=$18
          .equ	DDRB	=$17
          .equ	PINB	=$16
          .equ	PORTC	=$15
          .equ	DDRC	=$14
          .equ	PINC	=$13
          .equ	PORTD	=$12
          .equ	DDRD	=$11
          .equ	PIND	=$10
          .equ	SPDR	=$0f
          .equ	SPSR	=$0e
          .equ	SPCR	=$0d
          .equ	UDR		=$0c
          .equ	UCSRA	=$0b
          .equ	USR		=$0b    ; For compatibility with S8535
          .equ	UCSRB	=$0a
          .equ	UCR		=$0a    ; For compatibility with S8535
          .equ	UCSRC	=$20	; Note! UCSRC equals UBRRH 
          .equ	UBRR	=$09
          .equ	UBRRL	=$09	; New name for UBRR
          .equ	ACSR	=$08
          .equ    ADMUX   =$07
          .equ    ADCSR   =$06
          .equ    ADCH    =$05
          .equ    ADCL    =$04
          .equ    TWDR    =$03
          .equ    TWAR    =$02
          .equ    TWSR    =$01
          .equ    TWBR    =$00
          .equ    I2DR    =$03
          .equ    I2AR    =$02
          .equ    I2SR    =$01
          .equ    I2BR    =$00
         
         ;***** Bit Definitions
         
         ; GIMSK / GICR
          .equ	INT1	=7
          .equ	INT0	=6
          .equ	INT2	=5	
          .equ	IVSEL	=1      
          .equ	IVCE	=0      
         	
         ; GIFR
          .equ	INTF1	=7
          .equ	INTF0	=6
          .equ	INTF2	=5       
         
         ; TIMSK
          .equ    TOIE0   =0
          .equ    OCIE0   =1	 
          .equ    TOIE1   =2
          .equ    OCIE1B  =3
          .equ    OCIE1A  =4
          .equ    TICIE1  =5
          .equ    TOIE2   =6
          .equ    OCIE2   =7
         
         ; TIFR
          .equ    TOV0    =0
          .equ    OCF0    =1	 
          .equ    TOV1    =2
          .equ    OCF1B   =3
          .equ    OCF1A   =4
          .equ    ICF1    =5
          .equ    TOV2    =6
          .equ    OCF2    =7
         
         ; SPMCR
          .equ	SPMIE	=7
          .equ	ASB	=6
          .equ	ASRE	=4
          .equ	BLBSET	=3
          .equ	PGWRT	=2
          .equ	PGERS	=1
          .equ	SPMEN	=0
         	
         ; TWCR
          .equ    TWINT   =7
          .equ    TWEA    =6
          .equ    TWSTA   =5
          .equ    TWSTO   =4
          .equ    TWWC    =3
          .equ    TWEN    =2
         
          .equ    TWIE    =0
         
         ; MCUCR
         	
          .equ    SM2     =7   
          .equ    SE      =6
          .equ    SM1     =5
          .equ    SM0     =4
          .equ    ISC11   =3
          .equ    ISC10   =2
          .equ    ISC01   =1
          .equ    ISC00   =0
         
         ; MCUSR
          .equ    ISC2    =6   
          .equ    WDRF    =3
          .equ    BORF    =2
          .equ    EXTRF   =1
          .equ    PORF    =0
         
         ; TCCR0
          .equ    FOC0    =7   
          .equ    PWM0    =6  ;OBSOLETE! Use WGM00
          .equ    WGM00   =6
          .equ	COM01	=5   
          .equ	COM00	=4   
          .equ	CTC0	=3  ;OBSOLETE! Use WGM01
          .equ    WGM01   =3
          .equ	CS02	=2
          .equ	CS01	=1
          .equ	CS00	=0
         
         ; SFIOR
          .equ	ADTS2	=7	 			
          .equ	ADTS1	=6	 			
          .equ	ADTS0	=5	 			
          .equ    ADHSM   =4
          .equ    ACME    =3
          .equ    PUD     =2
          .equ    PSR2    =1
          .equ    PSR10   =0
         
         ; TCCR1A
          .equ	COM1A1	=7
          .equ	COM1A0	=6
          .equ	COM1B1	=5
          .equ	COM1B0	=4
          .equ	FOC1A	=3
          .equ	FOC1B	=2
          .equ	PWM11	=1  ; OBSOLETE! Use WGM11
          .equ	PWM10	=0  ; OBSOLETE! Use WGM10
          .equ	WGM11	=1
          .equ	WGM10	=0
         
         ; TCCR1B
          .equ	ICNC1	=7
          .equ	ICES1	=6
          .equ	CTC11	=4  ; OBSOLETE! Use WGM13
          .equ	CTC10	=3  ; OBSOLETE! Use WGM12
          .equ	CTC1	=3  ; OBSOLETE! Use WGM12
          .equ	WGM13	=4
          .equ	WGM12	=3
          .equ	CS12	=2
          .equ	CS11	=1
          .equ	CS10	=0
         
         ; TCCR2
          .equ	FOC2	=7
          .equ    PWM2    =6  ; OBSOLETE! Use WGM20
          .equ    WGM20   =6
          .equ    COM21   =5
          .equ    COM20   =4
          .equ    CTC2    =3  ; OBSOLETE! Use WGM21
          .equ    WGM21   =3
          .equ    CS22    =2
          .equ    CS21    =1
          .equ    CS20    =0
         
         ; ASSR
          .equ    AS2     =3
          .equ    TCN2UB  =2
          .equ    OCR2UB  =1
          .equ    TCR2UB  =0
         
         ; WDTCR
          .equ	WDTOE	=4
          .equ	WDE	=3
          .equ	WDP2	=2
          .equ	WDP1	=1
          .equ	WDP0	=0
         
         ; EECR
          .equ    EERIE   =3
          .equ	EEMWE	=2
          .equ	EEWE	=1
          .equ	EERE	=0
         
         ; PORTA
          .equ	PA7	=7
          .equ	PA6	=6
          .equ	PA5	=5
          .equ	PA4	=4
          .equ	PA3	=3
          .equ	PA2	=2
          .equ	PA1	=1
          .equ	PA0	=0
         
         ; DDRA
          .equ	DDA7	=7
          .equ	DDA6	=6
          .equ	DDA5	=5
          .equ	DDA4	=4
          .equ	DDA3	=3
          .equ	DDA2	=2
          .equ	DDA1	=1
          .equ	DDA0	=0
         
         ; PINA
          .equ	PINA7	=7
          .equ	PINA6	=6
          .equ	PINA5	=5
          .equ	PINA4	=4
          .equ	PINA3	=3
          .equ	PINA2	=2
          .equ	PINA1	=1
          .equ	PINA0	=0
         
         ; PORTB
          .equ	PB7	=7
          .equ	PB6	=6
          .equ	PB5	=5
          .equ	PB4	=4
          .equ	PB3	=3
          .equ	PB2	=2
          .equ	PB1	=1
          .equ	PB0	=0
         
         ; DDRB
          .equ	DDB7	=7
          .equ	DDB6	=6
          .equ	DDB5	=5
          .equ	DDB4	=4
          .equ	DDB3	=3
          .equ	DDB2	=2
          .equ	DDB1	=1
          .equ	DDB0	=0
         
         ; PINB
          .equ	PINB7	=7
          .equ	PINB6	=6
          .equ	PINB5	=5
          .equ	PINB4	=4
          .equ	PINB3	=3
          .equ	PINB2	=2
          .equ	PINB1	=1
          .equ	PINB0	=0
         
         ; PORTC
          .equ	PC7	=7
          .equ	PC6	=6
          .equ	PC5	=5
          .equ	PC4	=4
          .equ	PC3	=3
          .equ	PC2	=2
          .equ	PC1	=1
          .equ	PC0	=0
         
         ; DDRC
          .equ	DDC7	=7
          .equ	DDC6	=6
          .equ	DDC5	=5
          .equ	DDC4	=4
          .equ	DDC3	=3
          .equ	DDC2	=2
          .equ	DDC1	=1
          .equ	DDC0	=0
         
         ; PINC
          .equ	PINC7	=7
          .equ	PINC6	=6
          .equ	PINC5	=5
          .equ	PINC4	=4
          .equ	PINC3	=3
          .equ	PINC2	=2
          .equ	PINC1	=1
          .equ	PINC0	=0
         
         ; PORTD
          .equ	PD7	=7
          .equ	PD6	=6
          .equ	PD5	=5
          .equ	PD4	=4
          .equ	PD3	=3
          .equ	PD2	=2
          .equ	PD1	=1
          .equ	PD0	=0
         
         ; DDRD
          .equ	DDD7	=7
          .equ	DDD6	=6
          .equ	DDD5	=5
          .equ	DDD4	=4
          .equ	DDD3	=3
          .equ	DDD2	=2
          .equ	DDD1	=1
          .equ	DDD0	=0
         
         ; PIND
          .equ	PIND7	=7
          .equ	PIND6	=6
          .equ	PIND5	=5
          .equ	PIND4	=4
          .equ	PIND3	=3
          .equ	PIND2	=2
          .equ	PIND1	=1
          .equ	PIND0	=0
         
         ; SPSR
          .equ	SPIF	=7
          .equ	WCOL	=6
          .equ	SPI2X	=0
         
         ; SPCR
          .equ	SPIE	=7
          .equ	SPE	=6
          .equ	DORD	=5
          .equ	MSTR	=4
          .equ	CPOL	=3
          .equ	CPHA	=2
          .equ	SPR1	=1
          .equ	SPR0	=0
         
         ; UCSRA
          .equ	RXC	=7
          .equ	TXC	=6
          .equ	UDRE	=5
          .equ	FE	=4
          .equ	OR	=3
          .equ	DOR	=3	;New name for OR
          .equ	PE	=2	 
          .equ	U2X	=1
          .equ	MPCM	=0
         
         ; UCSRB
          .equ	RXCIE	=7
          .equ	TXCIE	=6
          .equ	UDRIE	=5
          .equ	RXEN	=4
          .equ	TXEN	=3
          .equ	CHR9	=2
          .equ	UCSZ2	=2	; New name for CHR9
          .equ	RXB8	=1
          .equ	TXB8	=0
         
         ;UCSRC
          .equ	URSEL	=7	 
          .equ	UMSEL	=6	 
          .equ	UPM1	=5	 
          .equ	UPM0	=4	 
          .equ	USBS	=3	 
          .equ	UCSZ1	=2	 
          .equ	UCSZ0	=1	 
          .equ	UCPOL	=0	 
         
         ; ACSR
          .equ	ACD	=7
          .equ    ACBG    =6
          .equ	ACO	=5
          .equ	ACI	=4
          .equ	ACIE	=3
          .equ	ACIC	=2
          .equ	ACIS1	=1
          .equ	ACIS0	=0
         
         ; ADMUX
          .equ    REFS1   =7
          .equ    REFS0   =6
          .equ    ADLAR   =5
          .equ    MUX4    =4
          .equ    MUX3    =3
          .equ    MUX2    =2
          .equ    MUX1    =1
          .equ    MUX0    =0
         
         ; ADCSR
          .equ    ADEN    =7
          .equ    ADSC    =6
          .equ	ADATE	=5	 
          .equ    ADFR    =5
          .equ    ADIF    =4
          .equ    ADIE    =3
          .equ    ADPS2   =2
          .equ    ADPS1   =1
          .equ    ADPS0   =0
         
         ; TWAR
          .equ    TWGCE   =0
         
          .def	XL	=r26
          .def	XH	=r27
          .def	YL	=r28
          .def	YH	=r29
          .def	ZL	=r30
          .def	ZH	=r31
         
          .equ 	RAMEND =$45F
         
          .equ 	BOOTSTART	=$1E00  ;OBSOLETE!!! temporarily kept for compatibility
         ;.equ 	LARGEBOOTSTART	=$0C00  ;largest boot block is 2KB
         ;.equ 	SMALLBOOTSTART	=$0F80  ;smallest boot block is 256B
          .equ 	SMALLBOOTSTART	=0b1111110000000  ;($1F80) smallest boot block is 256B
          .equ 	SECONDBOOTSTART	=0b1111100000000  ;($1F00) second boot block size is 512B
          .equ 	THIRDBOOTSTART	=0b1111000000000  ;($1E00) third boot block size is 1KB
          .equ 	LARGEBOOTSTART	=0b1110000000000  ;($1C00) largest boot block is 2KB
          .equ	PAGESIZE	=64     ;number of WORDS in a page
          .equ 	FLASHEND	=$1fff
         
          .equ	INT0addr=$002	;External Interrupt0 Vector Address
          .equ	INT1addr=$004	;External Interrupt1 Vector Address
          .equ	OC2addr =$006	;Output Compare2 Interrupt Vector Address
          .equ	OVF2addr=$008	;Overflow2 Interrupt Vector Address
          .equ	ICP1addr=$00A	;Input Capture1 Interrupt Vector Address
          .equ	OC1Aaddr=$00C	;Output Compare1A Interrupt Vector Address
          .equ	OC1Baddr=$00E	;Output Compare1B Interrupt Vector Address
          .equ	OVF1addr=$010	;Overflow1 Interrupt Vector Address
          .equ	OVF0addr=$012	;Overflow0 Interrupt Vector Address
          .equ	SPIaddr =$014	;SPI Interrupt Vector Address
          .equ	URXCaddr=$016	;UART Receive Complete Interrupt Vector Address
          .equ	UDREaddr=$018	;UART Data Register Empty Interrupt Vector Address
          .equ	UTXCaddr=$01A	;UART Transmit Complete Interrupt Vector Address
          .equ	ADCCaddr=$01C	;ADC Interrupt Vector Address
          .equ	ERDYaddr=$01E	;EEPROM Interrupt Vector Address
          .equ	ACIaddr =$020	;Analog Comparator Interrupt Vector Address
          .equ    TWIaddr =$022   ;Irq. vector address for Two-Wire Interface
          .equ	INT2addr=$024   ;External Interrupt2 Vector Address
          .equ	OC0addr =$026   ;Output Compare0 Interrupt Vector Address
          .equ	SPMRaddr=$028   ;Store Program Memory Ready Interrupt Vector Address
         ;.include "C:\PROGRA~3\Mikro\VMLAB\include\m16def.inc"
         	
         ; Wizja:
         ; Ka¿dy utwór jest whardcodowany jako funkcja
         ; Jest jakies GUI na LCD, które wyswietla nr utworu i jego nazwe
         ; SW7 - poprzedni utwór
         ; SW6 - nastêpny utwór
         ; SW5 - graj/przestañ
         
         ; Najprostrze rozwi¹zanie - dowolny przycisk wywo³uje przerwanie, ktore przerywa utwor i obsluguje przycisk
         ; Drugie rozwiazanie - Gdy grany jest utwor wylaczane jest przerwanie SW7 i SW6
         ; Trzecie rozwiazanie - obslugiwanie przerwania SW7 i SW6 nie przerywa utworu, a wykonuje sie w czasie przerwy pomiedzy nutami
         
         ; LCD:
         ; Pierwsze rozwiazanie - dwa wiersze ekranu sa zarezerwowane dla jedengo utworu
         ; Drugie rozwiazanie - Wyswietlamy aktywny utwor w pierwszej lini, a w drugiej nastepny
         
         ; Define here the variables
         ;
          .def  temp  =r16
          .equ SPEAKER_DDR = DDRB
          .equ SPEAKER_P = PB3
          .equ SPEAKER_PORT = PORTB
          .equ SPEAKER_PIN = PINB
         
         	;   D³ugoœæ nuty 		1,6 s		1600 taktów longdelay
         	;   D³ugoœæ pó³nuty 	0,8 s 	800  taktow longdelay
         	;	 D³ugoœæ æwierænuty 0,4 s	400  taktow longdelay
         	;	 D³ugoœæ ósemki	0,2 s		200  taktow longdelay
         	;   D³ugoœæ szesnastki 0,1 s  2    takty superlong
          	.equ  WHOLE_NOTE	= 64
          	.equ  HALF_NOTE	= 32
          	.equ  QUARTER_HALF_NOTE = 24
          	.equ  QUARTER_NOTE = 16
          	.equ  EIGHTH_NOTE	= 8
          	.equ  SIXTH_NOTE  = 4	
         	;   OCR0 jest porównywane z wartoœci¹ licznika
         	;   Gdy jest zgodnoœæ, licznik jest zerowany i nastêpuje przerwanie
         	;   		Hz		OCR0
         	;		c1	262	119
         	;		d1	294	106
         	;		e1	330   94
         	;		f1	350   89
         	;		g1	392   79
         	;		a1	440   71
         	;		h1	494   63
         	;		c2	523   59
         	;     d2 587   53
         	;		e2 659   47
         	;		f2 698   44
         	;		g2 784   39
         	;		a2 880   35
         	;		h2 988   31
          	.equ	SOUND_c1	= 119
          	.equ	SOUND_d1	= 106
          	.equ	SOUND_e1  = 94
          	.equ  SOUND_f1  = 89
          	.equ  SOUND_g1  = 79
          	.equ  SOUND_a1  = 71
          	.equ  SOUND_h1  = 63
          	.equ  SOUND_c2  = 59
          	.equ  SOUND_d2  = 53
          	.equ  SOUND_e2  = 47
          	.equ  SOUND_f2  = 44
          	.equ  SOUND_g2  = 39
          	.equ  SOUND_a2  = 35
          	.equ  SOUND_h2  = 31
         
         ; LCD variables
          	.equ  LCD_DATA_PORT = PORTC
          	.equ  LCD_DATA_DDR  = DDRC
          	.equ  LCD_RS        = PC0
          	.equ  LCD_OE        = PC1
          	.equ  LCD_D4        = PC2
          	.equ  LCD_D5        = PC3
          	.equ  LCD_D6        = PC4
          	.equ  LCD_D7        = PC5
         	
          .cseg
          .org 0
         ; Define here Reset and interrupt vectors, if any
         ;
          reset:
000000 c029         rjmp start 	
          .org INT0addr
000002 c095      	rjmp move_lcd
         	
          .org INT1addr
000004 c0cd      	rjmp play_song
000005 9518         reti      ; Addr $03
000006 9518         reti      ; Addr $04
000007 9518         reti      ; Addr $05
000008 9518         reti      ; Addr $06        Use 'rjmp myVector'
000009 9518         reti      ; Addr $07        to define a interrupt vector
00000a 9518         reti      ; Addr $08
00000b 9518         reti      ; Addr $09
00000c 9518         reti      ; Addr $0A
00000d 9518         reti      ; Addr $0B        This is just an example
00000e 9518         reti      ; Addr $0C        Not all MCUs have the same
00000f 9518         reti      ; Addr $0D        number of interrupt vectors
000010 9518         reti      ; Addr $0E
000011 9518         reti      ; Addr $0F
000012 9518         reti      ; Addr $10
         
          .org 42
         
         ; Program starts here after Reset
         ;
          start:
00002a 0000         nop       ; Initialize here ports, stack pointer,
00002b 0000         nop       ; cleanup RAM, etc.
00002c 0000         nop       ;
00002d 0000         nop       ;
         
            ; Initialize the stack
00002e e044         LDI R20, HIGH (RAMEND)
00002f bf4e         OUT SPH, R20
000030 e54f         LDI R20, LOW (RAMEND)
000031 bf4d         OUT SPL, R20
         
         
            ; Initialize global variables
000032 e090         ldi r25, 0 ; pointer to song
         
         	; Configure speaker
000033 9abb      	sbi SPEAKER_DDR, SPEAKER_P
000034 98c3      	cbi SPEAKER_PORT, SPEAKER_P
         	
         	; Configure counter
         	;ldi r16, 0b00000000
         	;out DDRB, r16
         	;   Preskaler:
         	;   CS02 CS01 CS00
         	;   0    0    0     licznik zatrzymany
         	;   0    0    1     clk
         	;   0    1    0     clk/8
         	;   0    1    1     clk/64
         	;   1    0    0     clk/256
         	;   1    0    1     clk/1024
         	;ldi r16, 1 << WGM01 | 1 << CS02 | 1 << COM00
         	;out TCCR0, r16
         
000035 e002      	ldi r16, 1 << OCIE0
000036 bf09      	out TIMSK, r16
         	
000037 d0d2      	rcall lcd_configure
000038 e604      	ldi r16, 100
000039 d036      	rcall delay
00003a e40e      	ldi r16, 'N'
00003b d106      	rcall copy
00003c e601      	ldi r16, 'a'
00003d d104      	rcall copy
00003e e603      	ldi r16, 'c'
00003f d102      	rcall copy
000040 e609      	ldi r16, 'i'
000041 d100      	rcall copy
000042 e703      	ldi r16, 's'
000043 d0fe      	rcall copy
000044 e60e      	ldi r16, 'n'
000045 d0fc      	rcall copy
000046 e609      	ldi r16, 'i'
000047 d0fa      	rcall copy
000048 e60a      	ldi r16, 'j'
000049 d0f8      	rcall copy
00004a e200      	ldi r16, ' '
00004b d0f6      	rcall copy
00004c e503      	ldi r16, 'S'
00004d d0f4      	rcall copy
00004e e507      	ldi r16, 'W'
00004f d0f2      	rcall copy
000050 e307      	ldi r16, '7'
000051 d0f0      	rcall copy
         	
000052 d0a3      	rcall interrupt_configure
         	
000053 0000      	nop
000054 0000      	nop
000055 9478      	sei
000056 0000      	nop
000057 0000      	nop
         	
         	;
000058 d426      	rcall cichanoc
         
          forever:
000059 0000         nop
00005a 0000         nop       ; Infinite loop.
00005b 0000         nop       ; Define your main system
00005c 0000         nop       ; behaviour here
00005d cffb      rjmp forever
         
         ; r16 - czêstotliwoœæ	r17 - d³ugoœæ nutki
          play_sound:
00005e 932f      	push r18
00005f b72f      	in r18, SREG
000060 932f      	push r18
         	
000061 bf0c      	out OCR0, r16
000062 e12c      	ldi r18, 1 << WGM01 | 1 << CS02 | 1 << COM00
000063 bf23      	out TCCR0, r18
         	
000064 2f01      	mov r16, r17
000065 d025      	rcall superlong
         	
000066 e128      	ldi r18, 1 << WGM01 | 1 << COM00
000067 bf23      	out TCCR0, r18
000068 e020      	ldi r18, 0
000069 bb28      	out PORTB, r18
00006a e406      	ldi r16, 70
00006b d00c      	rcall longdelay
         	
00006c 912f      	pop r18
00006d bf2f      	out SREG, r18
00006e 912f      	pop r18
00006f 9508      ret
         
         ; 0.0088ms = 8.8us
         ; R16 - liczba obrotów
          delay:
000070 932f      	PUSH R18
          	bigdelay:
000071 e124      		LDI R18, 20
          		smalldelay:
000072 952a      			DEC R18
000073 f7f1      			BRNE smalldelay
000074 950a      		DEC R16
000075 f7d9      		BRNE bigdelay
000076 912f      	POP R18
000077 9508      ret
         ; 1ms = 1000us
         ; R16 - liczba obrotów
          longdelay:
000078 931f      	PUSH R17
000079 932f      	PUSH R18
00007a b71f      	in r17, SREG
00007b 931f      	push r17
         	
          	loop_16:
00007c 2711      		CLR R17
          		loop_17:
00007d 2722      			CLR R18
          			loop_18:
00007e 9523      				INC R18
00007f ff27      				SBRS R18, 7
000080 cffd      				rjmp loop_18
000081 9513      			INC R17
000082 ff14      			SBRS R17, 4
000083 cff9      			rjmp loop_17
000084 950a      		DEC R16
000085 f7b1      		brne loop_16
         		
000086 911f      	pop r17
000087 bf1f      	out SREG, r17
000088 912f      	POP R18
000089 911f      	POP R17
00008a 9508      ret
         
         ;50ms = 50 000us
         ; r16 - liczba obrotow
          superlong:
00008b 931f      	push r17
00008c b71f      	in r17, SREG
00008d 931f      	push r17
         	
00008e 2f10      	mov r17, r16
          	loop_643:
00008f e302      		ldi r16, 50
000090 dfe7      		rcall longdelay ; Wykrzacza sie na tej funkcji - DLACZEGO?!?!
000091 951a      		dec r17
000092 f7e1      		brne loop_643
000093 0000      	nop
         	
000094 911f      	pop r17
000095 bf1f      	out SREG, r17
000096 911f      	pop r17
000097 9508      ret
         
          move_lcd:
000098 930f      	push r16
000099 b70f      	in r16, SREG
00009a 930f      	push r16
         	
00009b 9593      	inc r25
         	; Check if bigger than 3
00009c fd92      	sbrc r25, 2
00009d e091      	ldi r25, 1
         	
00009e b300      	in r16, PIND
00009f fd02      	sbrc r16, PD2
0000a0 c029      	rjmp if_move_lcd
0000a1 e00a      		ldi r16, 10
0000a2 dfd5      		rcall longdelay
         		
0000a3 b300      		in r16, PIND
0000a4 fd02      		sbrc r16, PD2
0000a5 c024      		rjmp if_move_lcd
         			; obsluz zdazenie
0000a6 d0e2      			rcall clear_lcd
         			
0000a7 e30e      			ldi r16, '>'
0000a8 d099      			rcall copy
         			
0000a9 2f09      			mov r16, r25
0000aa 950a      			dec r16
0000ab f021      			breq if_move_lcd01
0000ac 950a      			dec r16
0000ad f021      			breq if_move_lcd02
0000ae 950a      			dec r16
0000af f021      			breq if_move_lcd03
         			
          			if_move_lcd01:
0000b0 d0e9      				rcall write_mariotheme
0000b1 c004      				rjmp if_move_lcd00
          			if_move_lcd02:
0000b2 d104      				rcall write_starwars
0000b3 c002      				rjmp if_move_lcd00
          			if_move_lcd03:
0000b4 d11b      				rcall write_cichanoc
0000b5 c000      				rjmp if_move_lcd00
          			if_move_lcd00:
         			
0000b6 d0bf      			rcall new_line
         			
0000b7 2f09      			mov r16, r25
0000b8 950a      			dec r16
0000b9 f021      			breq if_move_lcd11
0000ba 950a      			dec r16
0000bb f021      			breq if_move_lcd12
0000bc 950a      			dec r16
0000bd f021      			breq if_move_lcd13
         			
          			if_move_lcd11:
0000be d0f8      				rcall write_starwars
0000bf c004      				rjmp if_move_lcd10
          			if_move_lcd12:
0000c0 d10f      				rcall write_cichanoc
0000c1 c002      				rjmp if_move_lcd10
          			if_move_lcd13:
0000c2 d0d7      				rcall write_mariotheme
0000c3 c000      				rjmp if_move_lcd10
          			if_move_lcd10:
         			
          			while_move_lcd:
0000c4 b300      				in r16, PIND
0000c5 fd02      				sbrc r16, PD2
0000c6 c003      				rjmp if_move_lcd
0000c7 e00a      				ldi r16, 10
0000c8 dfaf      				rcall longdelay
0000c9 cffa      				rjmp while_move_lcd
          	if_move_lcd:
         	
0000ca 9478      	sei
         	
          	forever_move_lcd:
0000cb 0000      		nop
0000cc 0000      		nop
0000cd cffd      		rjmp forever_move_lcd
         		
0000ce 910f      	pop r16
0000cf bf0f      	out SREG, r16
0000d0 910f      	pop r16
0000d1 9518      reti
         
          play_song:
0000d2 930f      	push r16
0000d3 b70f      	in r16, SREG
0000d4 930f      	push r16
         	
0000d5 b300      	in r16, PIND
0000d6 fd03      	sbrc r16, PD3
0000d7 c00b      	rjmp if_play_song
0000d8 e00a      		ldi r16, 10
0000d9 df9e      		rcall longdelay
         		
0000da b300      		in r16, PIND
0000db fd03      		sbrc r16, PD3
0000dc c006      		rjmp if_play_song
         			; obsluz zdazenie
         			
          			while_play_song:
0000dd b300      				in r16, PIND
0000de fd03      				sbrc r16, PD3
0000df c003      				rjmp if_play_song
0000e0 e00a      				ldi r16, 10
0000e1 df96      				rcall longdelay
0000e2 cffa      				rjmp while_play_song
          	if_play_song:
         	
         	
0000e3 9478      	sei
         	
          	forever_play_song:
0000e4 2f09      		mov r16, r25
0000e5 950a      		dec r16
0000e6 f021      		breq if_play_song1
0000e7 950a      		dec r16
0000e8 f021      		breq if_play_song2
0000e9 950a      		dec r16
0000ea f021      		breq if_play_song3
         		
          		if_play_song1:
0000eb d0fd      			rcall mariotheme
0000ec cff7      			rjmp forever_play_song
          		if_play_song2:
0000ed d2b8      			rcall starwars
0000ee cff5      			rjmp forever_play_song
          		if_play_song3:
0000ef d38f      			rcall cichanoc
0000f0 cff3      			rjmp forever_play_song
         		
0000f1 cff2      		rjmp forever_play_song
         	
0000f2 910f      	pop r16
0000f3 bf0f      	out SREG, r16
0000f4 910f      	pop r16
0000f5 9518      reti
         	
         
          interrupt_configure:
0000f6 930f      	push r16
         	
         	; Configure interupt INT0
         	; Set PD2 as input
0000f7 988a      	cbi DDRD, PD2
         	; Add rezystor podciagajacy
0000f8 9a92      	sbi PORTD, PD2
         	
         	; Configure interrupt INT1
         	; Set PD3 as input
0000f9 988b      	cbi DDRD, PD3
         	; Add rezystor podci¹gaj¹cy
0000fa 9a93      	sbi PORTD, PD3
         	
0000fb b705      	in r16, MCUCR
0000fc 7f07      	cbr r16, 1 << 3
0000fd 7f07      	cbr r16, 1 << 3
0000fe 6002      	sbr r16, 1 << 1
0000ff 7f0e      	cbr r16, 1 << 0
000100 bf04      	out MCUCSR, r16
         	
000101 b70b      	in r16, GICR
000102 6800      	sbr r16, 1 << 7
000103 6400      	sbr r16, 1 << 6
000104 bf0b      	out GICR, r16
         	
         	;in r16, MCUCSR
         	;sbr r16, 1 << ISC00 | 1 << ISC10
         	;cbr r16, 1 << ISC01 | 1 << ISC11
         	;out MCUCSR, r16
         	
         	;in r16, GICR
         	;sbr r16, 1 << INT0 | 1 << INT1
         	;out GICR, r16
         	
000105 b70a      	in r16, GIFR
000106 6c00      	sbr r16, 1 << INTF0 | 1 << INTF1
000107 bf0a      	out GIFR, r16
         	
         	;sei
         	
000108 910f      	pop r16
000109 9508      ret
         	
         
         ; LCD_configure
          lcd_configure:
00010a 930f      	push r16
00010b b70f      	in r16, SREG
00010c 930f      	push r16
         	; Set as output
00010d 9aa0      	SBI LCD_DATA_DDR, LCD_RS
00010e 9aa1      	SBI LCD_DATA_DDR, LCD_OE
00010f 9aa2      	SBI LCD_DATA_DDR, LCD_D4
000110 9aa3      	SBI LCD_DATA_DDR, LCD_D5
000111 9aa4      	SBI LCD_DATA_DDR, LCD_D6
000112 9aa5      	SBI LCD_DATA_DDR, LCD_D7
         
000113 98a8      	CBI LCD_DATA_PORT, LCD_RS
000114 98a9         CBI LCD_DATA_PORT, LCD_OE
000115 e208         LDI R16, 40
000116 df61         RCALL longdelay
            ; First instruction (30)16
000117 9aa9         SBI LCD_DATA_PORT, LCD_OE
000118 9aaa         SBI LCD_DATA_PORT, LCD_D4
000119 9aab         SBI LCD_DATA_PORT, LCD_D5
00011a 98ac         CBI LCD_DATA_PORT, LCD_D6
00011b 98ad         CBI LCD_DATA_PORT, LCD_D7
00011c 0000         NOP
00011d e006         LDI R16, 6
00011e 98a9         CBI LCD_DATA_PORT, LCD_OE
00011f df58         RCALL longdelay
            ; Second instruction (30)16
000120 9aa9         SBI LCD_DATA_PORT, LCD_OE
000121 0000         NOP
000122 e00a         LDI R16, 10
000123 98a9         CBI LCD_DATA_PORT, LCD_OE
000124 df4b         RCALL delay
            ; Third instruction (30)16
000125 9aa9         SBI LCD_DATA_PORT, LCD_OE
000126 0000         NOP
000127 e00a         LDI R16, 10
000128 98a9         CBI LCD_DATA_PORT, LCD_OE
000129 df46         RCALL delay
            ; Fourth instruction (20)16
00012a 9aa9         SBI LCD_DATA_PORT, LCD_OE
00012b 98aa         CBI LCD_DATA_PORT, LCD_D4
00012c 0000         NOP
00012d e006         LDI R16, 6
00012e 98a9         CBI LCD_DATA_PORT, LCD_OE
00012f df40         RCALL delay
         
         	; My configuration
         	; Function set
000130 e20b      	LDI R16, 0b00101011
000131 d010      	RCALL copy
000132 e006      	LDI R16, 6
000133 df3c      	RCALL delay
         	; Clear display
000134 e001      	LDI R16, 0b00000001
000135 d00c      	RCALL copy
000136 e002      	LDI R16, 2
000137 df40      	RCALL longdelay
         	; Display control
000138 e00f      	LDI R16, 0b00001111
000139 d008      	RCALL copy
00013a e006      	LDI R16, 6
00013b df34      	RCALL delay
         	; Data
00013c 9aa8      	SBI LCD_DATA_PORT, LCD_RS
00013d e00a      	LDI R16, 10	
         	
00013e 910f      	pop r16
00013f bf0f      	out SREG, r16
000140 910f      	pop r16
000141 9508      ret
         
         ; Copy - wypisuje pod kursorem znak R16, przesuwa kursor w prawo
         ; R16 - argument, znak
          copy:
000142 931f      	PUSH R17
000143 b71f      	in r17, SREG
000144 931f      	PUSH r17
000145 2f10      	MOV R17, R16
         	
000146 9aa9      	SBI LCD_DATA_PORT, LCD_OE ; Set E as 1
000147 ff14      	SBRS R17, 4   ; Copy 4 bit
000148 98aa      	CBI LCD_DATA_PORT, LCD_D4
000149 fd14      	SBRC R17, 4
00014a 9aaa      	SBI LCD_DATA_PORT, LCD_D4
00014b ff15      	SBRS R17, 5   ; Copy 5 bit
00014c 98ab      	CBI LCD_DATA_PORT, LCD_D5
00014d fd15      	SBRC R17, 5
00014e 9aab      	SBI LCD_DATA_PORT, LCD_D5
00014f ff16      	SBRS R17, 6   ; Copy 6 bit
000150 98ac      	CBI LCD_DATA_PORT, LCD_D6
000151 fd16      	SBRC R17, 6
000152 9aac      	SBI LCD_DATA_PORT, LCD_D6
000153 ff17      	SBRS R17, 7   ; Copy 7 bit
000154 98ad      	CBI LCD_DATA_PORT, LCD_D7
000155 fd17      	SBRC R17, 7
000156 9aad      	SBI LCD_DATA_PORT, LCD_D7
000157 e001      	LDI R16, 1
000158 0000      	NOP
000159 98a9      	CBI LCD_DATA_PORT, LCD_OE  ; Set E as 0
00015a df15      	RCALL delay ; Delay 10 us
         	
00015b 9aa9      	SBI LCD_DATA_PORT, LCD_OE ; Set E as 1
00015c ff10      	SBRS R17, 0   ; Copy 0 bit
00015d 98aa      	CBI LCD_DATA_PORT, LCD_D4
00015e fd10      	SBRC R17, 0
00015f 9aaa      	SBI LCD_DATA_PORT, LCD_D4
000160 ff11      	SBRS R17, 1   ; Copy 1 bit
000161 98ab      	CBI LCD_DATA_PORT, LCD_D5
000162 fd11      	SBRC R17, 1
000163 9aab      	SBI LCD_DATA_PORT, LCD_D5
000164 ff12      	SBRS R17, 2   ; Copy 2 bit
000165 98ac      	CBI LCD_DATA_PORT, LCD_D6
000166 fd12      	SBRC R17, 2
000167 9aac      	SBI LCD_DATA_PORT, LCD_D6
000168 ff13      	SBRS R17, 3   ; Copy 3 bit
000169 98ad      	CBI LCD_DATA_PORT, LCD_D7
00016a fd13      	SBRC R17, 3
00016b 9aad      	SBI LCD_DATA_PORT, LCD_D7
00016c e001      	LDI R16, 1
00016d 0000      	NOP
00016e 98a9      	CBI LCD_DATA_PORT, LCD_OE ; Set E as 0
00016f df00      	RCALL delay ; Delay 10 us
000170 e00a      	LDI R16, 10
000171 defe      	RCALL delay
         	
000172 911f      	POP R17
000173 bf1f      	out SREG, r17
000174 911f      	pop r17
000175 9508      ret
         
          new_line:
000176 930f      	push r16
000177 b70f      	in r16, SREG
000178 930f      	push r16
         	
         	; New line --begin--
000179 e604      	ldi r16, 100
00017a def5      	rcall delay
00017b 98a8      	cbi LCD_DATA_PORT, LCD_RS
00017c e208      	ldi r16, 40
00017d defa      	rcall longdelay
         	
00017e ec00      	ldi r16, 0x80 + 0x40
00017f dfc2      	rcall copy
         	
000180 e604      	ldi r16, 100
000181 deee      	rcall delay
000182 9aa8      	sbi LCD_DATA_PORT, LCD_RS
000183 e208      	ldi r16, 40
000184 def3      	rcall longdelay
         	; New line --end--
         	
000185 910f      	pop r16
000186 bf0f      	out SREG, r16
000187 910f      	pop r16
000188 9508      ret
         
          clear_lcd:
000189 930f      	push r16
00018a b70f      	in r16, SREG
00018b 930f      	push r16
         	
         	; Czyszczenie LCD --begin--
00018c 98a8      	cbi LCD_DATA_PORT, LCD_RS
00018d e208      	ldi r16, 40
00018e dee9      	rcall longdelay
00018f e001      	ldi r16, 1
000190 dfb1      	rcall copy
         	
000191 e604      	ldi r16, 100
000192 dedd      	rcall delay
000193 9aa8      	sbi LCD_DATA_PORT, LCD_RS
000194 e208      	ldi r16, 40
000195 dee2      	rcall longdelay
         	; Czyszczenie LCD --end--
         	
000196 910f      	pop r16
000197 bf0f      	out SREG, r16
000198 910f      	pop r16
000199 9508      ret
         
         ; Teksty
         ; 1. Mario theme
          write_mariotheme:
00019a 930f      	push r16
00019b b70f      	in r16, SREG
00019c 930f      	push r16
         	
00019d e40d      	ldi r16, 'M'
00019e dfa3      	rcall copy
00019f e601      	ldi r16, 'a'
0001a0 dfa1      	rcall copy
0001a1 e702      	ldi r16, 'r'
0001a2 df9f      	rcall copy
0001a3 e609      	ldi r16, 'i'
0001a4 df9d      	rcall copy
0001a5 e60f      	ldi r16, 'o'
0001a6 df9b      	rcall copy
0001a7 e200      	ldi r16, ' '
0001a8 df99      	rcall copy
0001a9 e704      	ldi r16, 't'
0001aa df97      	rcall copy
0001ab e608      	ldi r16, 'h'
0001ac df95      	rcall copy
0001ad e605      	ldi r16, 'e'
0001ae df93      	rcall copy
0001af e60d      	ldi r16, 'm'
0001b0 df91      	rcall copy
0001b1 e605      	ldi r16, 'e'
0001b2 df8f      	rcall copy
         	
0001b3 910f      	pop r16,
0001b4 bf0f      	out SREG, r16
0001b5 910f      	pop r16
0001b6 9508      ret
         ; 2. Star Wars
          write_starwars:
0001b7 930f      	push r16
0001b8 b70f      	in r16, SREG
0001b9 930f      	push r16
         	
0001ba e503      	ldi r16, 'S'
0001bb df86      	rcall copy
0001bc e704      	ldi r16, 't'
0001bd df84      	rcall copy
0001be e601      	ldi r16, 'a'
0001bf df82      	rcall copy
0001c0 e702      	ldi r16, 'r'
0001c1 df80      	rcall copy
0001c2 e200      	ldi r16, ' '
0001c3 df7e      	rcall copy
0001c4 e507      	ldi r16, 'W'
0001c5 df7c      	rcall copy
0001c6 e601      	ldi r16, 'a'
0001c7 df7a      	rcall copy
0001c8 e702      	ldi r16, 'r'
0001c9 df78      	rcall copy
0001ca e703      	ldi r16, 's'
0001cb df76      	rcall copy
         	
0001cc 910f      	pop r16
0001cd bf0f      	out SREG, r16
0001ce 910f      	pop r16
0001cf 9508      ret
         ; 3. Cicha noc
          write_cichanoc:
0001d0 930f      	push r16
0001d1 b70f      	in r16, SREG
0001d2 930f      	push r16
         	
0001d3 e403      	ldi r16, 'C'
0001d4 df6d      	rcall copy
0001d5 e609      	ldi r16, 'i'
0001d6 df6b      	rcall copy
0001d7 e603      	ldi r16, 'c'
0001d8 df69      	rcall copy
0001d9 e608      	ldi r16, 'h'
0001da df67      	rcall copy
0001db e601      	ldi r16, 'a'
0001dc df65      	rcall copy
0001dd e200      	ldi r16, ' '
0001de df63      	rcall copy
0001df e60e      	ldi r16, 'n'
0001e0 df61      	rcall copy
0001e1 e60f      	ldi r16, 'o'
0001e2 df5f      	rcall copy
0001e3 e603      	ldi r16, 'c'
0001e4 df5d      	rcall copy
         	
0001e5 910f      	pop r16
0001e6 bf0f      	out SREG, r16
0001e7 910f      	pop r16
0001e8 9508      ret
         
         ; Kolendy:
         ; 1. Mario Theme
          mariotheme:
0001e9 930f      	push r16
0001ea 931f      	push r17
0001eb 932f      	push r18
0001ec b70f      	in r16, SREG
0001ed 930f      	push r16
         	
0001ee e20f      	ldi r16, SOUND_e2
0001ef e014      ldi r17, SIXTH_NOTE
0001f0 de6d      rcall play_sound
0001f1 e20f      ldi r16, SOUND_e2
0001f2 e018      ldi r17, EIGHTH_NOTE
0001f3 de6a      rcall play_sound
0001f4 e20f      ldi r16, SOUND_e2
0001f5 e014      ldi r17, SIXTH_NOTE
0001f6 de67      rcall play_sound
0001f7 e004      ldi r16, SIXTH_NOTE
0001f8 de92      rcall superlong
0001f9 e30b      ldi r16, SOUND_c2
0001fa e014      ldi r17, SIXTH_NOTE
0001fb de62      rcall play_sound
0001fc e20f      ldi r16, SOUND_e2
0001fd e018      ldi r17, EIGHTH_NOTE
0001fe de5f      rcall play_sound
0001ff e207      ldi r16, SOUND_g2
000200 e110      ldi r17, QUARTER_NOTE
000201 de5c      rcall play_sound
000202 e40f      ldi r16, SOUND_g1
000203 e110      ldi r17, QUARTER_NOTE
000204 de59      rcall play_sound
000205 e30b      ldi r16, SOUND_c2
000206 e018      ldi r17, EIGHTH_NOTE
000207 de56      rcall play_sound
000208 e004      ldi r16, SIXTH_NOTE
000209 de81      rcall superlong
00020a e40f      ldi r16, SOUND_g1
00020b e014      ldi r17, SIXTH_NOTE
00020c de51      rcall play_sound
00020d e008      ldi r16, EIGHTH_NOTE
00020e de7c      rcall superlong
00020f e50e      ldi r16, SOUND_e1
000210 e018      ldi r17, EIGHTH_NOTE
000211 de4c      rcall play_sound
000212 e004      ldi r16, SIXTH_NOTE
000213 de77      rcall superlong
000214 e407      ldi r16, SOUND_a1
000215 e014      ldi r17, SIXTH_NOTE
000216 de47      rcall play_sound
000217 e004      ldi r16, SIXTH_NOTE
000218 de72      rcall superlong
000219 e30f      ldi r16, SOUND_h1
00021a e014      ldi r17, SIXTH_NOTE
00021b de42      rcall play_sound
00021c e004      ldi r16, SIXTH_NOTE
00021d de6d      rcall superlong
00021e e30f      ldi r16, SOUND_h1
00021f e014      ldi r17, SIXTH_NOTE
000220 de3d      rcall play_sound
000221 e407      ldi r16, SOUND_a1
000222 e018      ldi r17, EIGHTH_NOTE
000223 de3a      rcall play_sound
000224 e40f      ldi r16, SOUND_g1
000225 e018      ldi r17, EIGHTH_NOTE
000226 de37      rcall play_sound
000227 e20f      ldi r16, SOUND_e2
000228 e018      ldi r17, EIGHTH_NOTE
000229 de34      rcall play_sound
00022a e207      ldi r16, SOUND_g2
00022b e018      ldi r17, EIGHTH_NOTE
00022c de31      rcall play_sound
00022d e203      ldi r16, SOUND_a2
00022e e018      ldi r17, EIGHTH_NOTE
00022f de2e      rcall play_sound
000230 e20c      ldi r16, SOUND_f2
000231 e014      ldi r17, SIXTH_NOTE
000232 de2b      rcall play_sound
000233 e207      ldi r16, SOUND_g2
000234 e014      ldi r17, SIXTH_NOTE
000235 de28      rcall play_sound
000236 e004      ldi r16, SIXTH_NOTE
000237 de53      rcall superlong
000238 e20f      ldi r16, SOUND_e2
000239 e014      ldi r17, SIXTH_NOTE
00023a de23      rcall play_sound
00023b e004      ldi r16, SIXTH_NOTE
00023c de4e      rcall superlong
00023d e30b      ldi r16, SOUND_c2
00023e e014      ldi r17, SIXTH_NOTE
00023f de1e      rcall play_sound
000240 e305      ldi r16, SOUND_d2
000241 e014      ldi r17, SIXTH_NOTE
000242 de1b      rcall play_sound
000243 e30f      ldi r16, SOUND_h1
000244 e014      ldi r17, SIXTH_NOTE
000245 de18      rcall play_sound
000246 e008      ldi r16, EIGHTH_NOTE
000247 de43      rcall superlong
000248 e30b      ldi r16, SOUND_c2
000249 e018      ldi r17, EIGHTH_NOTE
00024a de13      rcall play_sound
00024b e004      ldi r16, SIXTH_NOTE
00024c de3e      rcall superlong
00024d e40f      ldi r16, SOUND_g1
00024e e014      ldi r17, SIXTH_NOTE
00024f de0e      rcall play_sound
000250 e50e      ldi r16, SOUND_e1
000251 e018      ldi r17, EIGHTH_NOTE
000252 de0b      rcall play_sound
000253 e004      ldi r16, SIXTH_NOTE
000254 de36      rcall superlong
000255 e407      ldi r16, SOUND_a1
000256 e014      ldi r17, SIXTH_NOTE
000257 de06      rcall play_sound
000258 e004      ldi r16, SIXTH_NOTE
000259 de31      rcall superlong
00025a e30f      ldi r16, SOUND_h1
00025b e014      ldi r17, SIXTH_NOTE
00025c de01      rcall play_sound
00025d e004      ldi r16, SIXTH_NOTE
00025e de2c      rcall superlong
00025f e30f      ldi r16, SOUND_h1
000260 e014      ldi r17, SIXTH_NOTE
000261 ddfc      rcall play_sound
000262 e407      ldi r16, SOUND_a1
000263 e018      ldi r17, EIGHTH_NOTE
000264 ddf9      rcall play_sound
000265 e40f      ldi r16, SOUND_g1
000266 e018      ldi r17, EIGHTH_NOTE
000267 ddf6      rcall play_sound
000268 e20f      ldi r16, SOUND_e2
000269 e018      ldi r17, EIGHTH_NOTE
00026a ddf3      rcall play_sound
00026b e207      ldi r16, SOUND_g2
00026c e018      ldi r17, EIGHTH_NOTE
00026d ddf0      rcall play_sound
00026e e203      ldi r16, SOUND_a2
00026f e018      ldi r17, EIGHTH_NOTE
000270 dded      rcall play_sound
000271 e20c      ldi r16, SOUND_f2
000272 e014      ldi r17, SIXTH_NOTE
000273 ddea      rcall play_sound
000274 e207      ldi r16, SOUND_g2
000275 e014      ldi r17, SIXTH_NOTE
000276 dde7      rcall play_sound
000277 e004      ldi r16, SIXTH_NOTE
000278 de12      rcall superlong
000279 e20f      ldi r16, SOUND_e2
00027a e014      ldi r17, SIXTH_NOTE
00027b dde2      rcall play_sound
00027c e004      ldi r16, SIXTH_NOTE
00027d de0d      rcall superlong
00027e e30b      ldi r16, SOUND_c2
00027f e014      ldi r17, SIXTH_NOTE
000280 dddd      rcall play_sound
000281 e305      ldi r16, SOUND_d2
000282 e014      ldi r17, SIXTH_NOTE
000283 ddda      rcall play_sound
000284 e30f      ldi r16, SOUND_h1
000285 e014      ldi r17, SIXTH_NOTE
000286 ddd7      rcall play_sound
000287 e008      ldi r16, EIGHTH_NOTE
000288 de02      rcall superlong
000289 e008      ldi r16, EIGHTH_NOTE
00028a de00      rcall superlong
00028b e207      ldi r16, SOUND_g2
00028c e014      ldi r17, SIXTH_NOTE
00028d ddd0      rcall play_sound
00028e e207      ldi r16, SOUND_g2
00028f e014      ldi r17, SIXTH_NOTE
000290 ddcd      rcall play_sound
000291 e20c      ldi r16, SOUND_f2
000292 e014      ldi r17, SIXTH_NOTE
000293 ddca      rcall play_sound
000294 e305      ldi r16, SOUND_d2
000295 e018      ldi r17, EIGHTH_NOTE
000296 ddc7      rcall play_sound
000297 e20f      ldi r16, SOUND_e2
000298 e014      ldi r17, SIXTH_NOTE
000299 ddc4      rcall play_sound
00029a e004      ldi r16, SIXTH_NOTE
00029b ddef      rcall superlong
00029c e40f      ldi r16, SOUND_g1
00029d e014      ldi r17, SIXTH_NOTE
00029e ddbf      rcall play_sound
00029f e407      ldi r16, SOUND_a1
0002a0 e014      ldi r17, SIXTH_NOTE
0002a1 ddbc      rcall play_sound
0002a2 e30b      ldi r16, SOUND_c2
0002a3 e014      ldi r17, SIXTH_NOTE
0002a4 ddb9      rcall play_sound
0002a5 e004      ldi r16, SIXTH_NOTE
0002a6 dde4      rcall superlong
0002a7 e407      ldi r16, SOUND_a1
0002a8 e014      ldi r17, SIXTH_NOTE
0002a9 ddb4      rcall play_sound
0002aa e30b      ldi r16, SOUND_c2
0002ab e014      ldi r17, SIXTH_NOTE
0002ac ddb1      rcall play_sound
0002ad e305      ldi r16, SOUND_d2
0002ae e014      ldi r17, SIXTH_NOTE
0002af ddae      rcall play_sound
0002b0 e008      ldi r16, EIGHTH_NOTE
0002b1 ddd9      rcall superlong
0002b2 e207      ldi r16, SOUND_g2
0002b3 e014      ldi r17, SIXTH_NOTE
0002b4 dda9      rcall play_sound
0002b5 e207      ldi r16, SOUND_g2
0002b6 e014      ldi r17, SIXTH_NOTE
0002b7 dda6      rcall play_sound
0002b8 e20c      ldi r16, SOUND_f2
0002b9 e014      ldi r17, SIXTH_NOTE
0002ba dda3      rcall play_sound
0002bb e305      ldi r16, SOUND_d2
0002bc e018      ldi r17, EIGHTH_NOTE
0002bd dda0      rcall play_sound
0002be e20f      ldi r16, SOUND_e2
0002bf e014      ldi r17, SIXTH_NOTE
0002c0 dd9d      rcall play_sound
0002c1 e004      ldi r16, SIXTH_NOTE
0002c2 ddc8      rcall superlong
0002c3 e20c      ldi r16, SOUND_f2
0002c4 e014      ldi r17, SIXTH_NOTE
0002c5 dd98      rcall play_sound
0002c6 e004      ldi r16, SIXTH_NOTE
0002c7 ddc3      rcall superlong
0002c8 e20c      ldi r16, SOUND_f2
0002c9 e014      ldi r17, SIXTH_NOTE
0002ca dd93      rcall play_sound
0002cb e20c      ldi r16, SOUND_f2
0002cc e110      ldi r17, QUARTER_NOTE
0002cd dd90      rcall play_sound
0002ce e008      ldi r16, EIGHTH_NOTE
0002cf ddbb      rcall superlong
0002d0 e207      ldi r16, SOUND_g2
0002d1 e014      ldi r17, SIXTH_NOTE
0002d2 dd8b      rcall play_sound
0002d3 e207      ldi r16, SOUND_g2
0002d4 e014      ldi r17, SIXTH_NOTE
0002d5 dd88      rcall play_sound
0002d6 e20c      ldi r16, SOUND_f2
0002d7 e014      ldi r17, SIXTH_NOTE
0002d8 dd85      rcall play_sound
0002d9 e305      ldi r16, SOUND_d2
0002da e018      ldi r17, EIGHTH_NOTE
0002db dd82      rcall play_sound
0002dc e20f      ldi r16, SOUND_e2
0002dd e014      ldi r17, SIXTH_NOTE
0002de dd7f      rcall play_sound
0002df e004      ldi r16, SIXTH_NOTE
0002e0 ddaa      rcall superlong
0002e1 e40f      ldi r16, SOUND_g1
0002e2 e014      ldi r17, SIXTH_NOTE
0002e3 dd7a      rcall play_sound
0002e4 e407      ldi r16, SOUND_a1
0002e5 e014      ldi r17, SIXTH_NOTE
0002e6 dd77      rcall play_sound
0002e7 e30b      ldi r16, SOUND_c2
0002e8 e014      ldi r17, SIXTH_NOTE
0002e9 dd74      rcall play_sound
0002ea e004      ldi r16, SIXTH_NOTE
0002eb dd9f      rcall superlong
0002ec e407      ldi r16, SOUND_a1
0002ed e014      ldi r17, SIXTH_NOTE
0002ee dd6f      rcall play_sound
0002ef e30b      ldi r16, SOUND_c2
0002f0 e014      ldi r17, SIXTH_NOTE
0002f1 dd6c      rcall play_sound
0002f2 e305      ldi r16, SOUND_d2
0002f3 e014      ldi r17, SIXTH_NOTE
0002f4 dd69      rcall play_sound
0002f5 e008      ldi r16, EIGHTH_NOTE
0002f6 dd94      rcall superlong
0002f7 e20f      ldi r16, SOUND_e2
0002f8 e018      ldi r17, EIGHTH_NOTE
0002f9 dd64      rcall play_sound
0002fa e004      ldi r16, SIXTH_NOTE
0002fb dd8f      rcall superlong
0002fc e305      ldi r16, SOUND_d2
0002fd e014      ldi r17, SIXTH_NOTE
0002fe dd5f      rcall play_sound
0002ff e008      ldi r16, EIGHTH_NOTE
000300 dd8a      rcall superlong
000301 e30b      ldi r16, SOUND_c2
000302 e110      ldi r17, QUARTER_NOTE
000303 dd5a      rcall play_sound
000304 e100      ldi r16, QUARTER_NOTE
000305 dd85      rcall superlong
000306 e008      ldi r16, EIGHTH_NOTE
000307 dd83      rcall superlong
000308 e207      ldi r16, SOUND_g2
000309 e014      ldi r17, SIXTH_NOTE
00030a dd53      rcall play_sound
00030b e207      ldi r16, SOUND_g2
00030c e014      ldi r17, SIXTH_NOTE
00030d dd50      rcall play_sound
00030e e20c      ldi r16, SOUND_f2
00030f e014      ldi r17, SIXTH_NOTE
000310 dd4d      rcall play_sound
000311 e305      ldi r16, SOUND_d2
000312 e018      ldi r17, EIGHTH_NOTE
000313 dd4a      rcall play_sound
000314 e20f      ldi r16, SOUND_e2
000315 e014      ldi r17, SIXTH_NOTE
000316 dd47      rcall play_sound
000317 e004      ldi r16, SIXTH_NOTE
000318 dd72      rcall superlong
000319 e40f      ldi r16, SOUND_g1
00031a e014      ldi r17, SIXTH_NOTE
00031b dd42      rcall play_sound
00031c e407      ldi r16, SOUND_a1
00031d e014      ldi r17, SIXTH_NOTE
00031e dd3f      rcall play_sound
00031f e30b      ldi r16, SOUND_c2
000320 e014      ldi r17, SIXTH_NOTE
000321 dd3c      rcall play_sound
000322 e004      ldi r16, SIXTH_NOTE
000323 dd67      rcall superlong
000324 e407      ldi r16, SOUND_a1
000325 e014      ldi r17, SIXTH_NOTE
000326 dd37      rcall play_sound
000327 e30b      ldi r16, SOUND_c2
000328 e014      ldi r17, SIXTH_NOTE
000329 dd34      rcall play_sound
00032a e305      ldi r16, SOUND_d2
00032b e014      ldi r17, SIXTH_NOTE
00032c dd31      rcall play_sound
00032d e008      ldi r16, EIGHTH_NOTE
00032e dd5c      rcall superlong
00032f e207      ldi r16, SOUND_g2
000330 e014      ldi r17, SIXTH_NOTE
000331 dd2c      rcall play_sound
000332 e207      ldi r16, SOUND_g2
000333 e014      ldi r17, SIXTH_NOTE
000334 dd29      rcall play_sound
000335 e20c      ldi r16, SOUND_f2
000336 e014      ldi r17, SIXTH_NOTE
000337 dd26      rcall play_sound
000338 e305      ldi r16, SOUND_d2
000339 e018      ldi r17, EIGHTH_NOTE
00033a dd23      rcall play_sound
00033b e20f      ldi r16, SOUND_e2
00033c e014      ldi r17, SIXTH_NOTE
00033d dd20      rcall play_sound
00033e e004      ldi r16, SIXTH_NOTE
00033f dd4b      rcall superlong
000340 e20c      ldi r16, SOUND_f2
000341 e014      ldi r17, SIXTH_NOTE
000342 dd1b      rcall play_sound
000343 e004      ldi r16, SIXTH_NOTE
000344 dd46      rcall superlong
000345 e20c      ldi r16, SOUND_f2
000346 e014      ldi r17, SIXTH_NOTE
000347 dd16      rcall play_sound
000348 e20c      ldi r16, SOUND_f2
000349 e110      ldi r17, QUARTER_NOTE
00034a dd13      rcall play_sound
         
00034b e008      ldi r16, EIGHTH_NOTE
00034c dd3e      rcall superlong
00034d e207      ldi r16, SOUND_g2
00034e e014      ldi r17, SIXTH_NOTE
00034f dd0e      rcall play_sound
000350 e207      ldi r16, SOUND_g2
000351 e014      ldi r17, SIXTH_NOTE
000352 dd0b      rcall play_sound
000353 e20c      ldi r16, SOUND_f2
000354 e014      ldi r17, SIXTH_NOTE
000355 dd08      rcall play_sound
000356 e305      ldi r16, SOUND_d2
000357 e018      ldi r17, EIGHTH_NOTE
000358 dd05      rcall play_sound
000359 e20f      ldi r16, SOUND_e2
00035a e014      ldi r17, SIXTH_NOTE
00035b dd02      rcall play_sound
00035c e004      ldi r16, SIXTH_NOTE
00035d dd2d      rcall superlong
00035e e40f      ldi r16, SOUND_g1
00035f e014      ldi r17, SIXTH_NOTE
000360 dcfd      rcall play_sound
000361 e407      ldi r16, SOUND_a1
000362 e014      ldi r17, SIXTH_NOTE
000363 dcfa      rcall play_sound
000364 e30b      ldi r16, SOUND_c2
000365 e014      ldi r17, SIXTH_NOTE
000366 dcf7      rcall play_sound
000367 e004      ldi r16, SIXTH_NOTE
000368 dd22      rcall superlong
000369 e407      ldi r16, SOUND_a1
00036a e014      ldi r17, SIXTH_NOTE
00036b dcf2      rcall play_sound
00036c e30b      ldi r16, SOUND_c2
00036d e014      ldi r17, SIXTH_NOTE
00036e dcef      rcall play_sound
00036f e305      ldi r16, SOUND_d2
000370 e014      ldi r17, SIXTH_NOTE
000371 dcec      rcall play_sound
000372 e008      ldi r16, EIGHTH_NOTE
000373 dd17      rcall superlong
000374 e20f      ldi r16, SOUND_e2
000375 e018      ldi r17, EIGHTH_NOTE
000376 dce7      rcall play_sound
000377 e004      ldi r16, SIXTH_NOTE
000378 dd12      rcall superlong
000379 e305      ldi r16, SOUND_d2
00037a e014      ldi r17, SIXTH_NOTE
00037b dce2      rcall play_sound
00037c e008      ldi r16, EIGHTH_NOTE
00037d dd0d      rcall superlong
00037e e30b      ldi r16, SOUND_c2
00037f e110      ldi r17, QUARTER_NOTE
000380 dcdd      rcall play_sound
000381 e100      ldi r16, QUARTER_NOTE
000382 dd08      rcall superlong
000383 e30b      ldi r16, SOUND_c2
000384 e014      ldi r17, SIXTH_NOTE
000385 dcd8      rcall play_sound
000386 e30b      ldi r16, SOUND_c2
000387 e018      ldi r17, EIGHTH_NOTE
000388 dcd5      rcall play_sound
000389 e30b      ldi r16, SOUND_c2
00038a e014      ldi r17, SIXTH_NOTE
00038b dcd2      rcall play_sound
00038c e004      ldi r16, SIXTH_NOTE
00038d dcfd      rcall superlong
00038e e30b      ldi r16, SOUND_c2
00038f e014      ldi r17, SIXTH_NOTE
000390 dccd      rcall play_sound
000391 e305      ldi r16, SOUND_d2
000392 e018      ldi r17, EIGHTH_NOTE
000393 dcca      rcall play_sound
000394 e20f      ldi r16, SOUND_e2
000395 e014      ldi r17, SIXTH_NOTE
000396 dcc7      rcall play_sound
000397 e30b      ldi r16, SOUND_c2
000398 e018      ldi r17, EIGHTH_NOTE
000399 dcc4      rcall play_sound
00039a e407      ldi r16, SOUND_a1
00039b e014      ldi r17, SIXTH_NOTE
00039c dcc1      rcall play_sound
00039d e40f      ldi r16, SOUND_g1
00039e e018      ldi r17, EIGHTH_NOTE
00039f dcbe      rcall play_sound
         
         
         
         	
0003a0 910f      	pop r16
0003a1 bf0f      	out SREG, r16
0003a2 912f      	pop r18
0003a3 911f      	pop r17
0003a4 910f      	pop r16
0003a5 9508      ret
         ; 2. Star Wars
          starwars:
0003a6 930f      	push r16
0003a7 931f      	push r17
0003a8 932f      	push r18
0003a9 b70f      	in r16, SREG
0003aa 930f      	push r16
         	
0003ab e40f      	ldi r16, SOUND_g1
0003ac e110      ldi r17, QUARTER_NOTE
0003ad dcb0      rcall play_sound
0003ae e40f      ldi r16, SOUND_g1
0003af e110      ldi r17, QUARTER_NOTE
0003b0 dcad      rcall play_sound
0003b1 e40f      ldi r16, SOUND_g1
0003b2 e110      ldi r17, QUARTER_NOTE
0003b3 dcaa      rcall play_sound
0003b4 e50e      ldi r16, SOUND_e1
0003b5 e01c      ldi r17, EIGHTH_NOTE + SIXTH_NOTE
0003b6 dca7      rcall play_sound
0003b7 e30f      ldi r16, SOUND_h1
0003b8 e014      ldi r17, SIXTH_NOTE
0003b9 dca4      rcall play_sound
         
0003ba e40f      ldi r16, SOUND_g1
0003bb e110      ldi r17, QUARTER_NOTE
0003bc dca1      rcall play_sound
0003bd e50e      ldi r16, SOUND_e1
0003be e01c      ldi r17, EIGHTH_NOTE + SIXTH_NOTE
0003bf dc9e      rcall play_sound
0003c0 e30f      ldi r16, SOUND_h1
0003c1 e014      ldi r17, SIXTH_NOTE
0003c2 dc9b      rcall play_sound
0003c3 e40f      ldi r16, SOUND_g1
0003c4 e210      ldi r17, HALF_NOTE
0003c5 dc98      rcall play_sound
         
0003c6 e305      ldi r16, SOUND_d2
0003c7 e110      ldi r17, QUARTER_NOTE
0003c8 dc95      rcall play_sound
0003c9 e305      ldi r16, SOUND_d2
0003ca e110      ldi r17, QUARTER_NOTE
0003cb dc92      rcall play_sound
0003cc e305      ldi r16, SOUND_d2
0003cd e110      ldi r17, QUARTER_NOTE
0003ce dc8f      rcall play_sound
0003cf e20f      ldi r16, SOUND_e2
0003d0 e01c      ldi r17, EIGHTH_NOTE + SIXTH_NOTE
0003d1 dc8c      rcall play_sound
0003d2 e30f      ldi r16, SOUND_h1
0003d3 e014      ldi r17, SIXTH_NOTE
0003d4 dc89      rcall play_sound
         
0003d5 e40f      ldi r16, SOUND_g1
0003d6 e110      ldi r17, QUARTER_NOTE
0003d7 dc86      rcall play_sound
0003d8 e50e      ldi r16, SOUND_e1
0003d9 e01c      ldi r17, EIGHTH_NOTE + SIXTH_NOTE
0003da dc83      rcall play_sound
0003db e30f      ldi r16, SOUND_h1
0003dc e014      ldi r17, SIXTH_NOTE
0003dd dc80      rcall play_sound
0003de e40f      ldi r16, SOUND_g1
0003df e210      ldi r17, HALF_NOTE
0003e0 dc7d      rcall play_sound
         
0003e1 e207      ldi r16, SOUND_g2
0003e2 e110      ldi r17, QUARTER_NOTE
0003e3 dc7a      rcall play_sound
0003e4 e40f      ldi r16, SOUND_g1
0003e5 e01c      ldi r17, EIGHTH_NOTE + SIXTH_NOTE
0003e6 dc77      rcall play_sound
0003e7 e40f      ldi r16, SOUND_g1
0003e8 e014      ldi r17, SIXTH_NOTE
0003e9 dc74      rcall play_sound
0003ea e207      ldi r16, SOUND_g2
0003eb e110      ldi r17, QUARTER_NOTE
0003ec dc71      rcall play_sound
0003ed e20c      ldi r16, SOUND_f2
0003ee e018      ldi r17, EIGHTH_NOTE
0003ef dc6e      rcall play_sound
0003f0 e20c      ldi r16, SOUND_f2
0003f1 e014      ldi r17, SIXTH_NOTE
0003f2 dc6b      rcall play_sound
         
0003f3 e20f      ldi r16, SOUND_e2
0003f4 e014      ldi r17, SIXTH_NOTE
0003f5 dc68      rcall play_sound
0003f6 e305      ldi r16, SOUND_d2
0003f7 e014      ldi r17, SIXTH_NOTE
0003f8 dc65      rcall play_sound
0003f9 e20f      ldi r16, SOUND_e2
0003fa e014      ldi r17, SIXTH_NOTE
0003fb dc62      rcall play_sound
0003fc e008      ldi r16, EIGHTH_NOTE
0003fd dc8d      rcall superlong
0003fe e40f      ldi r16, SOUND_g1
0003ff e018      ldi r17, EIGHTH_NOTE
000400 dc5d      rcall play_sound
000401 e30b      ldi r16, SOUND_c2
000402 e110      ldi r17, QUARTER_NOTE
000403 dc5a      rcall play_sound
000404 e30b      ldi r16, SOUND_c2
000405 e01c      ldi r17, EIGHTH_NOTE + SIXTH_NOTE
000406 dc57      rcall play_sound
000407 e30f      ldi r16, SOUND_h1
000408 e014      ldi r17, SIXTH_NOTE
000409 dc54      rcall play_sound
         
00040a e30f      ldi r16, SOUND_h1
00040b e014      ldi r17, SIXTH_NOTE
00040c dc51      rcall play_sound
00040d e407      ldi r16, SOUND_a1
00040e e014      ldi r17, SIXTH_NOTE
00040f dc4e      rcall play_sound
000410 e30f      ldi r16, SOUND_h1
000411 e018      ldi r17, EIGHTH_NOTE
000412 dc4b      rcall play_sound
000413 e008      ldi r16, EIGHTH_NOTE
000414 dc76      rcall superlong
000415 e50e      ldi r16, SOUND_e1
000416 e018      ldi r17, EIGHTH_NOTE
000417 dc46      rcall play_sound
000418 e40f      ldi r16, SOUND_g1
000419 e110      ldi r17, QUARTER_NOTE
00041a dc43      rcall play_sound
00041b e50e      ldi r16, SOUND_e1
00041c e01c      ldi r17, EIGHTH_NOTE + SIXTH_NOTE
00041d dc40      rcall play_sound
00041e e40f      ldi r16, SOUND_g1
00041f e014      ldi r17, SIXTH_NOTE
000420 dc3d      rcall play_sound
         
000421 e30f      ldi r16, SOUND_h1
000422 e110      ldi r17, QUARTER_NOTE
000423 dc3a      rcall play_sound
000424 e40f      ldi r16, SOUND_g1
000425 e01c      ldi r17, EIGHTH_NOTE + SIXTH_NOTE
000426 dc37      rcall play_sound
000427 e30f      ldi r16, SOUND_h1
000428 e014      ldi r17, SIXTH_NOTE
000429 dc34      rcall play_sound
00042a e305      ldi r16, SOUND_d2
00042b e210      ldi r17, HALF_NOTE
00042c dc31      rcall play_sound
         
00042d e207      ldi r16, SOUND_g2
00042e e110      ldi r17, QUARTER_NOTE
00042f dc2e      rcall play_sound
000430 e40f      ldi r16, SOUND_g1
000431 e01c      ldi r17, EIGHTH_NOTE + SIXTH_NOTE
000432 dc2b      rcall play_sound
000433 e40f      ldi r16, SOUND_g1
000434 e014      ldi r17, SIXTH_NOTE
000435 dc28      rcall play_sound
000436 e207      ldi r16, SOUND_g2
000437 e110      ldi r17, QUARTER_NOTE
000438 dc25      rcall play_sound
000439 e20c      ldi r16, SOUND_f2
00043a e018      ldi r17, EIGHTH_NOTE
00043b dc22      rcall play_sound
00043c e20c      ldi r16, SOUND_f2
00043d e014      ldi r17, SIXTH_NOTE
00043e dc1f      rcall play_sound
         
00043f e20f      ldi r16, SOUND_e2
000440 e014      ldi r17, SIXTH_NOTE
000441 dc1c      rcall play_sound
000442 e305      ldi r16, SOUND_d2
000443 e014      ldi r17, SIXTH_NOTE
000444 dc19      rcall play_sound
000445 e20f      ldi r16, SOUND_e2
000446 e018      ldi r17, EIGHTH_NOTE
000447 dc16      rcall play_sound
000448 e008      ldi r16, EIGHTH_NOTE
000449 dc41      rcall superlong
00044a e40f      ldi r16, SOUND_g1
00044b e018      ldi r17, EIGHTH_NOTE
00044c dc11      rcall play_sound
00044d e30b      ldi r16, SOUND_c2
00044e e110      ldi r17, QUARTER_NOTE
00044f dc0e      rcall play_sound
000450 e30b      ldi r16, SOUND_c2
000451 e01c      ldi r17, EIGHTH_NOTE + SIXTH_NOTE
000452 dc0b      rcall play_sound
000453 e30f      ldi r16, SOUND_h1
000454 e014      ldi r17, SIXTH_NOTE
000455 dc08      rcall play_sound
         
000456 e30f      ldi r16, SOUND_h1
000457 e014      ldi r17, SIXTH_NOTE
000458 dc05      rcall play_sound
000459 e407      ldi r16, SOUND_a1
00045a e014      ldi r17, SIXTH_NOTE
00045b dc02      rcall play_sound
00045c e30f      ldi r16, SOUND_h1
00045d e018      ldi r17, EIGHTH_NOTE
00045e dbff      rcall play_sound
00045f e008      ldi r16, EIGHTH_NOTE
000460 dc2a      rcall superlong
000461 e50e      ldi r16, SOUND_e1
000462 e018      ldi r17, EIGHTH_NOTE
000463 dbfa      rcall play_sound
000464 e40f      ldi r16, SOUND_g1
000465 e110      ldi r17, QUARTER_NOTE
000466 dbf7      rcall play_sound
000467 e50e      ldi r16, SOUND_e1
000468 e01c      ldi r17, EIGHTH_NOTE + SIXTH_NOTE
000469 dbf4      rcall play_sound
00046a e30f      ldi r16, SOUND_h1
00046b e014      ldi r17, SIXTH_NOTE
00046c dbf1      rcall play_sound
         
00046d e40f      ldi r16, SOUND_g1
00046e e110      ldi r17, QUARTER_NOTE
00046f dbee      rcall play_sound
000470 e50e      ldi r16, SOUND_e1
000471 e01c      ldi r17, EIGHTH_NOTE + SIXTH_NOTE
000472 dbeb      rcall play_sound
000473 e30f      ldi r16, SOUND_h1
000474 e014      ldi r17, SIXTH_NOTE
000475 dbe8      rcall play_sound
000476 e40f      ldi r16, SOUND_g1
000477 e210      ldi r17, HALF_NOTE
000478 dbe5      rcall play_sound
         
         
         
         
         
         
         	
000479 910f      	pop r16
00047a bf0f      	out SREG, r16
00047b 912f      	pop r18
00047c 911f      	pop r17
00047d 910f      	pop r16
00047e 9508      ret
         ; 3. Cicha noc
          cichanoc:
00047f 930f      	push r16
000480 931f      	push r17
000481 932f      	push r18
000482 b70f      	in r16, SREG
000483 930f      	push r16
         	
000484 e40f      	ldi r16, SOUND_g1
000485 e01c      	ldi r17, EIGHTH_NOTE + SIXTH_NOTE
000486 dbd7      	rcall play_sound		
000487 e407      	ldi r16, SOUND_a1
000488 e014      	ldi r17, SIXTH_NOTE
000489 dbd4      	rcall play_sound	
00048a e40f      	ldi r16, SOUND_g1
00048b e018      	ldi r17, EIGHTH_NOTE
00048c dbd1      	rcall play_sound	
00048d e50e      	ldi r16, SOUND_e1
00048e e118      	ldi r17, QUARTER_NOTE + EIGHTH_NOTE
00048f dbce      	rcall play_sound
         	
000490 e40f      	ldi r16, SOUND_g1
000491 e01c      	ldi r17, EIGHTH_NOTE + SIXTH_NOTE
000492 dbcb      	rcall play_sound		
000493 e407      	ldi r16, SOUND_a1
000494 e014      	ldi r17, SIXTH_NOTE
000495 dbc8      	rcall play_sound	
000496 e40f      	ldi r16, SOUND_g1
000497 e018      	ldi r17, EIGHTH_NOTE
000498 dbc5      	rcall play_sound	
000499 e50e      	ldi r16, SOUND_e1
00049a e118      	ldi r17, QUARTER_NOTE + EIGHTH_NOTE
00049b dbc2      	rcall play_sound
         
00049c e305      	ldi r16, SOUND_d2
00049d e110      	ldi r17, QUARTER_NOTE
00049e dbbf      	rcall play_sound
00049f e305      	ldi r16, SOUND_d2
0004a0 e018      	ldi r17, EIGHTH_NOTE
0004a1 dbbc      	rcall play_sound
0004a2 e30f      	ldi r16, SOUND_h1
0004a3 e110      	ldi r17, QUARTER_NOTE
0004a4 dbb9      	rcall play_sound							
0004a5 e30f      	ldi r16, SOUND_h1
0004a6 e018      	ldi r17, EIGHTH_NOTE
0004a7 dbb6      	rcall play_sound
         	
0004a8 e30b      	ldi r16, SOUND_c2
0004a9 e110      	ldi r17, QUARTER_NOTE
0004aa dbb3      	rcall play_sound				
0004ab e30b      	ldi r16, SOUND_c2
0004ac e018      	ldi r17, EIGHTH_NOTE
0004ad dbb0      	rcall play_sound
0004ae e40f      	ldi r16, SOUND_g1
0004af e118      	ldi r17, QUARTER_NOTE + EIGHTH_NOTE
0004b0 dbad      	rcall play_sound		
         	
0004b1 e022      	ldi r18, 2
          	loop_26576:
0004b2 e407      		ldi r16, SOUND_a1
0004b3 e110      		ldi r17, QUARTER_NOTE
0004b4 dba9      		rcall play_sound
0004b5 e407      		ldi r16, SOUND_a1
0004b6 e018      		ldi r17, EIGHTH_NOTE
0004b7 dba6      		rcall play_sound
0004b8 e30b      		ldi r16, SOUND_c2
0004b9 e01c      		ldi r17, EIGHTH_NOTE + SIXTH_NOTE
0004ba dba3      		rcall play_sound
0004bb e30f      		ldi r16, SOUND_h1
0004bc e014      		ldi r17, SIXTH_NOTE
0004bd dba0      		rcall play_sound
0004be e407      		ldi r16, SOUND_a1
0004bf e018      		ldi r17, EIGHTH_NOTE
0004c0 db9d      		rcall play_sound
         		
0004c1 e40f      		ldi r16, SOUND_g1
0004c2 e01c      		ldi r17, EIGHTH_NOTE + SIXTH_NOTE
0004c3 db9a      		rcall play_sound				
0004c4 e407      		ldi r16, SOUND_a1
0004c5 e014      		ldi r17, SIXTH_NOTE
0004c6 db97      		rcall play_sound
0004c7 e40f      		ldi r16, SOUND_g1
0004c8 e018      		ldi r17, EIGHTH_NOTE
0004c9 db94      		rcall play_sound
0004ca e50e      		ldi r16, SOUND_e1
0004cb e110      		ldi r17, QUARTER_NOTE
0004cc db91      		rcall play_sound
0004cd e40f      		ldi r16, SOUND_g1
0004ce e018      		ldi r17, EIGHTH_NOTE
0004cf db8e      		rcall play_sound
         		
0004d0 952a      		dec r18
0004d1 f701      		brne loop_26576
0004d2 0000      	nop
         	
0004d3 e305      	ldi r16, SOUND_d2
0004d4 e110      	ldi r17, QUARTER_NOTE
0004d5 db88      	rcall play_sound
0004d6 e305      	ldi r16, SOUND_d2
0004d7 e018      	ldi r17, EIGHTH_NOTE
0004d8 db85      	rcall play_sound
0004d9 e20c      	ldi r16, SOUND_f2
0004da e01c      	ldi r17, EIGHTH_NOTE + SIXTH_NOTE
0004db db82      	rcall play_sound
0004dc e305      	ldi r16, SOUND_d2
0004dd e014      	ldi r17, SIXTH_NOTE
0004de db7f      	rcall play_sound
0004df e30f      	ldi r16, SOUND_h1
0004e0 e018      	ldi r17, EIGHTH_NOTE
0004e1 db7c      	rcall play_sound
         	
0004e2 e30b      	ldi r16, SOUND_c2
0004e3 e118      	ldi r17, EIGHTH_NOTE + QUARTER_NOTE
0004e4 db79      	rcall play_sound
0004e5 e30b      	ldi r16, SOUND_c2
0004e6 e018      	ldi r17, EIGHTH_NOTE
0004e7 db76      	rcall play_sound
0004e8 e100      	ldi r16, QUARTER_NOTE
0004e9 dba1      	rcall superlong
         	
0004ea e30b      	ldi r16, SOUND_c2
0004eb e01c      	ldi r17, EIGHTH_NOTE + SIXTH_NOTE
0004ec db71      	rcall play_sound
0004ed e40f      	ldi r16, SOUND_g1
0004ee e014      	ldi r17, SIXTH_NOTE
0004ef db6e      	rcall play_sound
0004f0 e50e      	ldi r16, SOUND_e1
0004f1 e018      	ldi r17, EIGHTH_NOTE
0004f2 db6b      	rcall play_sound
0004f3 e40f      	ldi r16, SOUND_g1
0004f4 e01c      	ldi r17, EIGHTH_NOTE + SIXTH_NOTE
0004f5 db68      	rcall play_sound
0004f6 e509      	ldi r16, SOUND_f1
0004f7 e014      	ldi r17, SIXTH_NOTE
0004f8 db65      	rcall play_sound
0004f9 e60a      	ldi r16, SOUND_d1
0004fa e018      	ldi r17, EIGHTH_NOTE
0004fb db62      	rcall play_sound
         	
0004fc e707      	ldi r16, SOUND_c1
0004fd e118      	ldi r17, EIGHTH_NOTE + QUARTER_NOTE
0004fe db5f      	rcall play_sound
0004ff e707      	ldi r16, SOUND_c1
000500 e018      	ldi r17, EIGHTH_NOTE
000501 db5c      	rcall play_sound
000502 e100      	ldi r16, QUARTER_NOTE
000503 db87      	rcall superlong
         	
000504 910f      	pop r16
000505 bf0f      	out SREG, r16
000506 912f      	pop r18
000507 911f      	pop r17
000508 910f      	pop r16
000509 9508      ret
         
         
         
         
         
         
         
         
         
         
         
         
         
         
         
         
         
         
         
         
         
         
         
         
         

Assembly complete with no errors.
